target datalayout = "e-m:e-p270:32:32-p271:32:32-p272:64:64-i64:64-i128:128-f80:128-n8:16:32:64-S128"
target triple = "x86_64-pc-linux-gnu"

%"struct.xgboost::GlobalConfiguration" = type { %"struct.xgboost::XGBoostParameter", i32, i8, i32 }
%"struct.xgboost::XGBoostParameter" = type { i8 }

@_ZZN4dmlc16ThreadLocalStoreIN7xgboost19GlobalConfigurationEE3GetEvE4inst = linkonce_odr thread_local global { i8, i32, i8, i32 } { i8 0, i32 1, i8 0, i32 0 }, comdat, align 4

; Function Attrs: mustprogress nounwind uwtable
define linkonce_odr noundef ptr @_ZN4dmlc16ThreadLocalStoreIN7xgboost19GlobalConfigurationEE3GetEv() #7 comdat align 2 {
  %1 = call align 4 ptr @llvm.threadlocal.address.p0(ptr align 4 @_ZZN4dmlc16ThreadLocalStoreIN7xgboost19GlobalConfigurationEE3GetEvE4inst)
  ret ptr %1
}

; Function Attrs: mustprogress uwtable
define noundef i32 @_ZN7xgboost13ConsoleLogger15GlobalVerbosityEv() #4 align 2 {
  %1 = alloca i32, align 4
  call void @llvm.lifetime.start.p0(i64 4, ptr %1) #3
  store i32 1, ptr %1, align 4, !tbaa !31
  %2 = call noundef ptr @_ZN4dmlc16ThreadLocalStoreIN7xgboost19GlobalConfigurationEE3GetEv()
  %3 = getelementptr inbounds nuw %"struct.xgboost::GlobalConfiguration", ptr %2, i32 0, i32 1
  %4 = load i32, ptr %3, align 4, !tbaa !32
  switch i32 %4, label %9 [
    i32 0, label %5
    i32 1, label %6
    i32 2, label %7
    i32 3, label %8
  ]

5:                                                ; preds = %0
  store i32 0, ptr %1, align 4, !tbaa !31
  br label %10

6:                                                ; preds = %0
  store i32 1, ptr %1, align 4, !tbaa !31
  br label %10

7:                                                ; preds = %0
  store i32 2, ptr %1, align 4, !tbaa !31
  br label %10

8:                                                ; preds = %0
  store i32 3, ptr %1, align 4, !tbaa !31
  br label %9

9:                                                ; preds = %0, %8
  br label %10

10:                                               ; preds = %9, %7, %6, %5
  %11 = load i32, ptr %1, align 4, !tbaa !31
  call void @llvm.lifetime.end.p0(i64 4, ptr %1) #3
  ret i32 %11
}