; Function Attrs: mustprogress nofree norecurse nosync nounwind willreturn memory(read, argmem: none, inaccessiblemem: none) uwtable
define noundef range(i32 0, 4) i32 @_ZN7xgboost13ConsoleLogger15GlobalVerbosityEv() local_unnamed_addr #6 align 2 {
switch.lookup:
  %0 = tail call noundef align 4 ptr @llvm.threadlocal.address.p0(ptr align 4 @_ZZN4dmlc16ThreadLocalStoreIN7xgboost19GlobalConfigurationEE3GetEvE4inst)
  %1 = getelementptr inbounds nuw i8, ptr %0, i64 4
  %2 = load i32, ptr %1, align 4, !tbaa !25
  %3 = icmp ult i32 %2, 4
  %spec.select = select i1 %3, i32 %2, i32 1
  ret i32 %spec.select
}